target datalayout = "e-m:e-p270:32:32-p271:32:32-p272:64:64-i64:64-i128:128-f80:128-n8:16:32:64-S128"
target triple = "x86_64-unknown-linux-gnu"

%struct.addrinfo = type { i32, i32, i32, i32, i32, ptr, ptr, ptr }
%struct.sockaddr_in = type { i16, i16, %struct.in_addr, [8 x i8] }
%struct.in_addr = type { i32 }
%struct.sockaddr_in6 = type { i16, i16, i32, %struct.in6_addr, i32 }
%struct.in6_addr = type { %union.anon }
%union.anon = type { [4 x i32] }

@.str.8 = private unnamed_addr constant [3 x i8] c"%s\00", align 1

; Function Attrs: nounwind uwtable
define dso_local i32 @anetResolve(ptr noundef %err, ptr noundef %host, ptr noundef %ipbuf, i64 noundef %ipbuf_len, i32 noundef %flags) #0 {
entry:
  %retval = alloca i32, align 4
  %err.addr = alloca ptr, align 8
  %host.addr = alloca ptr, align 8
  %ipbuf.addr = alloca ptr, align 8
  %ipbuf_len.addr = alloca i64, align 8
  %flags.addr = alloca i32, align 4
  %hints = alloca %struct.addrinfo, align 8
  %info = alloca ptr, align 8
  %rv = alloca i32, align 4
  %sa = alloca ptr, align 8
  %sa8 = alloca ptr, align 8
  store ptr %err, ptr %err.addr, align 8
  store ptr %host, ptr %host.addr, align 8
  store ptr %ipbuf, ptr %ipbuf.addr, align 8
  store i64 %ipbuf_len, ptr %ipbuf_len.addr, align 8
  store i32 %flags, ptr %flags.addr, align 4
  call void @llvm.memset.p0.i64(ptr align 8 %hints, i8 0, i64 48, i1 false)
  %0 = load i32, ptr %flags.addr, align 4
  %and = and i32 %0, 1
  %tobool = icmp ne i32 %and, 0
  br i1 %tobool, label %if.then, label %if.end

if.then:                                          ; preds = %entry
  %ai_flags = getelementptr inbounds %struct.addrinfo, ptr %hints, i32 0, i32 0
  store i32 4, ptr %ai_flags, align 8
  br label %if.end

if.end:                                           ; preds = %if.then, %entry
  %ai_family = getelementptr inbounds %struct.addrinfo, ptr %hints, i32 0, i32 1
  store i32 0, ptr %ai_family, align 4
  %ai_socktype = getelementptr inbounds %struct.addrinfo, ptr %hints, i32 0, i32 2
  store i32 1, ptr %ai_socktype, align 8
  %1 = load ptr, ptr %host.addr, align 8
  %call = call i32 @getaddrinfo(ptr noundef %1, ptr noundef null, ptr noundef %hints, ptr noundef %info)
  store i32 %call, ptr %rv, align 4
  %cmp = icmp ne i32 %call, 0
  br i1 %cmp, label %if.then1, label %if.end3

if.then1:                                         ; preds = %if.end
  %2 = load ptr, ptr %err.addr, align 8
  %3 = load i32, ptr %rv, align 4
  %call2 = call ptr @gai_strerror(i32 noundef %3) #7
  call void (ptr, ptr, ...) @anetSetError(ptr noundef %2, ptr noundef @.str.8, ptr noundef %call2)
  store i32 -1, ptr %retval, align 4
  br label %return

if.end3:                                          ; preds = %if.end
  %4 = load ptr, ptr %info, align 8
  %ai_family4 = getelementptr inbounds %struct.addrinfo, ptr %4, i32 0, i32 1
  %5 = load i32, ptr %ai_family4, align 4
  %cmp5 = icmp eq i32 %5, 2
  br i1 %cmp5, label %if.then6, label %if.else

if.then6:                                         ; preds = %if.end3
  %6 = load ptr, ptr %info, align 8
  %ai_addr = getelementptr inbounds %struct.addrinfo, ptr %6, i32 0, i32 5
  %7 = load ptr, ptr %ai_addr, align 8
  store ptr %7, ptr %sa, align 8
  %8 = load ptr, ptr %sa, align 8
  %sin_addr = getelementptr inbounds %struct.sockaddr_in, ptr %8, i32 0, i32 2
  %9 = load ptr, ptr %ipbuf.addr, align 8
  %10 = load i64, ptr %ipbuf_len.addr, align 8
  %conv = trunc i64 %10 to i32
  %call7 = call ptr @inet_ntop(i32 noundef 2, ptr noundef %sin_addr, ptr noundef %9, i32 noundef %conv) #7
  br label %if.end12

if.else:                                          ; preds = %if.end3
  %11 = load ptr, ptr %info, align 8
  %ai_addr9 = getelementptr inbounds %struct.addrinfo, ptr %11, i32 0, i32 5
  %12 = load ptr, ptr %ai_addr9, align 8
  store ptr %12, ptr %sa8, align 8
  %13 = load ptr, ptr %sa8, align 8
  %sin6_addr = getelementptr inbounds %struct.sockaddr_in6, ptr %13, i32 0, i32 3
  %14 = load ptr, ptr %ipbuf.addr, align 8
  %15 = load i64, ptr %ipbuf_len.addr, align 8
  %conv10 = trunc i64 %15 to i32
  %call11 = call ptr @inet_ntop(i32 noundef 10, ptr noundef %sin6_addr, ptr noundef %14, i32 noundef %conv10) #7
  br label %if.end12

if.end12:                                         ; preds = %if.else, %if.then6
  %16 = load ptr, ptr %info, align 8
  call void @freeaddrinfo(ptr noundef %16) #7
  store i32 0, ptr %retval, align 4
  br label %return

return:                                           ; preds = %if.end12, %if.then1
  %17 = load i32, ptr %retval, align 4
  ret i32 %17
}