; Function Attrs: nounwind uwtable
define dso_local noundef i32 @anetResolve(ptr noundef %err, ptr noundef %host, ptr noundef %ipbuf, i64 noundef %ipbuf_len, i32 noundef %flags) local_unnamed_addr #0 {
entry:
  %hints = alloca %struct.addrinfo, align 8
  %info = alloca ptr, align 8
  call void @llvm.memset.p0.i64(ptr noundef nonnull align 8 dereferenceable(48) %hints, i8 0, i64 48, i1 false)
  %and = and i32 %flags, 1
  %tobool.not = icmp eq i32 %and, 0
  br i1 %tobool.not, label %if.end, label %if.then

if.then:                                          ; preds = %entry
  store i32 4, ptr %hints, align 8
  br label %if.end

if.end:                                           ; preds = %if.then, %entry
  %ai_family = getelementptr inbounds i8, ptr %hints, i64 4
  store i32 0, ptr %ai_family, align 4
  %ai_socktype = getelementptr inbounds i8, ptr %hints, i64 8
  store i32 1, ptr %ai_socktype, align 8
  %call = call i32 @getaddrinfo(ptr noundef %host, ptr noundef null, ptr noundef nonnull %hints, ptr noundef nonnull %info) #10
  %cmp.not = icmp eq i32 %call, 0
  br i1 %cmp.not, label %if.end3, label %if.then1

if.then1:                                         ; preds = %if.end
  %call2 = call ptr @gai_strerror(i32 noundef %call) #10
  call void (ptr, ptr, ...) @anetSetError(ptr noundef %err, ptr noundef nonnull @.str.8, ptr noundef %call2)
  br label %return

if.end3:                                          ; preds = %if.end
  %0 = load ptr, ptr %info, align 8
  %ai_family4 = getelementptr inbounds i8, ptr %0, i64 4
  %1 = load i32, ptr %ai_family4, align 4
  %cmp5 = icmp eq i32 %1, 2
  %ai_addr = getelementptr inbounds i8, ptr %0, i64 24
  %2 = load ptr, ptr %ai_addr, align 8
  %conv = trunc i64 %ipbuf_len to i32
  %. = select i1 %cmp5, i64 4, i64 8
  %.4 = select i1 %cmp5, i32 2, i32 10
  %sin6_addr = getelementptr inbounds i8, ptr %2, i64 %.
  %call11 = call ptr @inet_ntop(i32 noundef %.4, ptr noundef nonnull %sin6_addr, ptr noundef %ipbuf, i32 noundef %conv) #10
  %3 = load ptr, ptr %info, align 8
  call void @freeaddrinfo(ptr noundef %3) #10
  br label %return

return:                                           ; preds = %if.end3, %if.then1
  %retval.0 = phi i32 [ -1, %if.then1 ], [ 0, %if.end3 ]
  ret i32 %retval.0
}